; ModuleID = '43/319.c'
source_filename = "43/319.c"
target datalayout = "e-m:e-p270:32:32-p271:32:32-p272:64:64-i64:64-f80:128-n8:16:32:64-S128"
target triple = "x86_64-pc-linux-gnu"

@.str = private unnamed_addr constant [3 x i8] c"%d\00", align 1
@.str.1 = private unnamed_addr constant [7 x i8] c"%d %d\0A\00", align 1

; Function Attrs: noinline nounwind uwtable
define dso_local i32 @main() #0 {
  %1 = alloca i32, align 4
  %2 = alloca i32, align 4
  %3 = alloca i32, align 4
  %4 = alloca i32, align 4
  %5 = alloca i32, align 4
  %6 = alloca i32, align 4
  %7 = alloca i32, align 4
  %8 = alloca i32, align 4
  %9 = alloca i32, align 4
  store i32 0, i32* %1, align 4
  %10 = call i32 (i8*, ...) @__isoc99_scanf(i8* getelementptr inbounds ([3 x i8], [3 x i8]* @.str, i64 0, i64 0), i32* %2)
  store i32 0, i32* %4, align 4
  store i32 0, i32* %5, align 4
  store i32 3, i32* %6, align 4
  br label %11

11:                                               ; preds = %64, %0
  %12 = load i32, i32* %6, align 4
  %13 = load i32, i32* %2, align 4
  %14 = sdiv i32 %13, 2
  %15 = icmp sle i32 %12, %14
  br i1 %15, label %16, label %67

16:                                               ; preds = %11
  %17 = load i32, i32* %2, align 4
  %18 = load i32, i32* %6, align 4
  %19 = sub nsw i32 %17, %18
  store i32 %19, i32* %3, align 4
  store i32 3, i32* %7, align 4
  br label %20

20:                                               ; preds = %33, %16
  %21 = load i32, i32* %7, align 4
  %22 = load i32, i32* %6, align 4
  %23 = icmp sle i32 %21, %22
  br i1 %23, label %24, label %36

24:                                               ; preds = %20
  %25 = load i32, i32* %6, align 4
  %26 = load i32, i32* %7, align 4
  %27 = srem i32 %25, %26
  %28 = icmp eq i32 %27, 0
  br i1 %28, label %29, label %32

29:                                               ; preds = %24
  %30 = load i32, i32* %4, align 4
  %31 = add nsw i32 %30, 1
  store i32 %31, i32* %4, align 4
  br label %32

32:                                               ; preds = %29, %24
  br label %33

33:                                               ; preds = %32
  %34 = load i32, i32* %7, align 4
  %35 = add nsw i32 %34, 1
  store i32 %35, i32* %7, align 4
  br label %20

36:                                               ; preds = %20
  store i32 3, i32* %8, align 4
  br label %37

37:                                               ; preds = %50, %36
  %38 = load i32, i32* %8, align 4
  %39 = load i32, i32* %3, align 4
  %40 = icmp sle i32 %38, %39
  br i1 %40, label %41, label %53

41:                                               ; preds = %37
  %42 = load i32, i32* %3, align 4
  %43 = load i32, i32* %8, align 4
  %44 = srem i32 %42, %43
  %45 = icmp eq i32 %44, 0
  br i1 %45, label %46, label %49

46:                                               ; preds = %41
  %47 = load i32, i32* %5, align 4
  %48 = add nsw i32 %47, 1
  store i32 %48, i32* %5, align 4
  br label %49

49:                                               ; preds = %46, %41
  br label %50

50:                                               ; preds = %49
  %51 = load i32, i32* %8, align 4
  %52 = add nsw i32 %51, 1
  store i32 %52, i32* %8, align 4
  br label %37

53:                                               ; preds = %37
  %54 = load i32, i32* %4, align 4
  %55 = icmp eq i32 %54, 1
  br i1 %55, label %56, label %63

56:                                               ; preds = %53
  %57 = load i32, i32* %5, align 4
  %58 = icmp eq i32 %57, 1
  br i1 %58, label %59, label %63

59:                                               ; preds = %56
  %60 = load i32, i32* %6, align 4
  %61 = load i32, i32* %3, align 4
  %62 = call i32 (i8*, ...) @printf(i8* getelementptr inbounds ([7 x i8], [7 x i8]* @.str.1, i64 0, i64 0), i32 %60, i32 %61)
  br label %63

63:                                               ; preds = %59, %56, %53
  store i32 0, i32* %4, align 4
  store i32 0, i32* %5, align 4
  br label %64

64:                                               ; preds = %63
  %65 = load i32, i32* %6, align 4
  %66 = add nsw i32 %65, 2
  store i32 %66, i32* %6, align 4
  br label %11

67:                                               ; preds = %11
  %68 = call i32 (i8*, ...) @__isoc99_scanf(i8* getelementptr inbounds ([3 x i8], [3 x i8]* @.str, i64 0, i64 0), i32* %9)
  ret i32 0
}

declare dso_local i32 @__isoc99_scanf(i8*, ...) #1

declare dso_local i32 @printf(i8*, ...) #1


!llvm.module.flags = !{!0}
!llvm.ident = !{!1}

!0 = !{i32 1, !"wchar_size", i32 4}
!1 = !{!"clang version 10.0.0-4ubuntu1 "}
